(dp0
S'results'
p1
(lp2
(i__main__
mr_representation
p3
(dp4
S'mr_obj'
p5
(idls_optimiser_util
dls_measurement_var
p6
(dp7
S'delay'
p8
F0.3
sS'min_counts'
p9
F10.0
sS'pv'
p10
S'CS-DI-XFER-01:BS-MS'
p11
sbsS'mr_label'
p12
S'CS-DI-XFER-01:BS-MS'
p13
sS'max_min_text'
p14
S'Maximise'
p15
sS'max_min_sign'
p16
S'-'
p17
sS'inj_setting_text'
p18
S'Injection'
p19
sS'mr_to_ar_sign'
p20
g17
sS'list_iid'
p21
S'I001'
p22
sS'ar_label'
p23
S'-CS-DI-XFER-01:BS-MS'
p24
sS'inj_setting'
p25
I1
sba(i__main__
mr_representation
p26
(dp27
g5
(idls_optimiser_util
dls_measurement_var
p28
(dp29
g8
F0.3
sg9
F10.0
sg10
S'lifetime_proxy'
p30
sbsg12
S'lifetime_proxy'
p31
sg14
g15
sg16
g17
sg18
S'Non-injection'
p32
sg20
g17
sg21
S'I002'
p33
sg23
S'-lifetime_proxy'
p34
sg25
I0
sbasS'parameters'
p35
(lp36
(i__main__
mp_group_representation
p37
(dp38
S'relative_setting'
p39
I01
sS'ap_max'
p40
F1.0
sS'ap_label'
p41
S'S1B'
p42
sS'mp_representations'
p43
(lp44
(i__main__
mp_representation
p45
(dp46
g21
S'I002'
p47
sS'mp_label'
p48
S'SR03A-PC-S1B-01:SETI'
p49
sS'mp_obj'
p50
(idls_optimiser_util
dls_param_var
p51
(dp52
g8
F0.8
sS'initial_setting'
p53
Nsg10
g49
sbsba(i__main__
mp_representation
p54
(dp55
g21
S'I003'
p56
sg48
S'SR03A-PC-S1B-07:SETI'
p57
sg50
(idls_optimiser_util
dls_param_var
p58
(dp59
g8
F0.8
sg53
Nsg10
g57
sbsba(i__main__
mp_representation
p60
(dp61
g21
S'I004'
p62
sg48
S'SR06A-PC-S1B-01:SETI'
p63
sg50
(idls_optimiser_util
dls_param_var
p64
(dp65
g8
F0.8
sg53
Nsg10
g63
sbsba(i__main__
mp_representation
p66
(dp67
g21
S'I005'
p68
sg48
S'SR06A-PC-S1B-07:SETI'
p69
sg50
(idls_optimiser_util
dls_param_var
p70
(dp71
g8
F0.8
sg53
Nsg10
g69
sbsba(i__main__
mp_representation
p72
(dp73
g21
S'I006'
p74
sg48
S'SR07A-PC-S1B-01:SETI'
p75
sg50
(idls_optimiser_util
dls_param_var
p76
(dp77
g8
F0.8
sg53
Nsg10
g75
sbsba(i__main__
mp_representation
p78
(dp79
g21
S'I007'
p80
sg48
S'SR07A-PC-S1B-07:SETI'
p81
sg50
(idls_optimiser_util
dls_param_var
p82
(dp83
g8
F0.8
sg53
Nsg10
g81
sbsba(i__main__
mp_representation
p84
(dp85
g21
S'I008'
p86
sg48
S'SR10A-PC-S1B-01:SETI'
p87
sg50
(idls_optimiser_util
dls_param_var
p88
(dp89
g8
F0.8
sg53
Nsg10
g87
sbsba(i__main__
mp_representation
p90
(dp91
g21
S'I009'
p92
sg48
S'SR10A-PC-S1B-07:SETI'
p93
sg50
(idls_optimiser_util
dls_param_var
p94
(dp95
g8
F0.8
sg53
Nsg10
g93
sbsba(i__main__
mp_representation
p96
(dp97
g21
S'I00A'
p98
sg48
S'SR11A-PC-S1B-01:SETI'
p99
sg50
(idls_optimiser_util
dls_param_var
p100
(dp101
g8
F0.8
sg53
Nsg10
g99
sbsba(i__main__
mp_representation
p102
(dp103
g21
S'I00B'
p104
sg48
S'SR11A-PC-S1B-07:SETI'
p105
sg50
(idls_optimiser_util
dls_param_var
p106
(dp107
g8
F0.8
sg53
Nsg10
g105
sbsba(i__main__
mp_representation
p108
(dp109
g21
S'I00C'
p110
sg48
S'SR14A-PC-S1B-01:SETI'
p111
sg50
(idls_optimiser_util
dls_param_var
p112
(dp113
g8
F0.8
sg53
Nsg10
g111
sbsba(i__main__
mp_representation
p114
(dp115
g21
S'I00D'
p116
sg48
S'SR14A-PC-S1B-07:SETI'
p117
sg50
(idls_optimiser_util
dls_param_var
p118
(dp119
g8
F0.8
sg53
Nsg10
g117
sbsba(i__main__
mp_representation
p120
(dp121
g21
S'I00E'
p122
sg48
S'SR15A-PC-S1B-01:SETI'
p123
sg50
(idls_optimiser_util
dls_param_var
p124
(dp125
g8
F0.8
sg53
Nsg10
g123
sbsba(i__main__
mp_representation
p126
(dp127
g21
S'I00F'
p128
sg48
S'SR15A-PC-S1B-07:SETI'
p129
sg50
(idls_optimiser_util
dls_param_var
p130
(dp131
g8
F0.8
sg53
Nsg10
g129
sbsba(i__main__
mp_representation
p132
(dp133
g21
S'I010'
p134
sg48
S'SR18A-PC-S1B-01:SETI'
p135
sg50
(idls_optimiser_util
dls_param_var
p136
(dp137
g8
F0.8
sg53
Nsg10
g135
sbsba(i__main__
mp_representation
p138
(dp139
g21
S'I011'
p140
sg48
S'SR18A-PC-S1B-07:SETI'
p141
sg50
(idls_optimiser_util
dls_param_var
p142
(dp143
g8
F0.8
sg53
Nsg10
g141
sbsba(i__main__
mp_representation
p144
(dp145
g21
S'I012'
p146
sg48
S'SR19A-PC-S1B-01:SETI'
p147
sg50
(idls_optimiser_util
dls_param_var
p148
(dp149
g8
F0.8
sg53
Nsg10
g147
sbsba(i__main__
mp_representation
p150
(dp151
g21
S'I013'
p152
sg48
S'SR19A-PC-S1B-07:SETI'
p153
sg50
(idls_optimiser_util
dls_param_var
p154
(dp155
g8
F0.8
sg53
Nsg10
g153
sbsba(i__main__
mp_representation
p156
(dp157
g21
S'I014'
p158
sg48
S'SR22A-PC-S1B-01:SETI'
p159
sg50
(idls_optimiser_util
dls_param_var
p160
(dp161
g8
F0.8
sg53
Nsg10
g159
sbsba(i__main__
mp_representation
p162
(dp163
g21
S'I015'
p164
sg48
S'SR22A-PC-S1B-07:SETI'
p165
sg50
(idls_optimiser_util
dls_param_var
p166
(dp167
g8
F0.8
sg53
Nsg10
g165
sbsba(i__main__
mp_representation
p168
(dp169
g21
S'I016'
p170
sg48
S'SR23A-PC-S1B-01:SETI'
p171
sg50
(idls_optimiser_util
dls_param_var
p172
(dp173
g8
F0.8
sg53
Nsg10
g171
sbsba(i__main__
mp_representation
p174
(dp175
g21
S'I017'
p176
sg48
S'SR23A-PC-S1B-07:SETI'
p177
sg50
(idls_optimiser_util
dls_param_var
p178
(dp179
g8
F0.8
sg53
Nsg10
g177
sbsbasS'ap_min'
p180
F-1.0
sg21
S'I001'
p181
sba(i__main__
mp_group_representation
p182
(dp183
g39
I01
sg40
F1.0
sg41
S'S1C'
p184
sg43
(lp185
(i__main__
mp_representation
p186
(dp187
g21
S'I019'
p188
sg48
S'SR01A-PC-S1C-07:SETI'
p189
sg50
(idls_optimiser_util
dls_param_var
p190
(dp191
g8
F0.8
sg53
Nsg10
g189
sbsba(i__main__
mp_representation
p192
(dp193
g21
S'I01A'
p194
sg48
S'SR04A-PC-S1C-01:SETI'
p195
sg50
(idls_optimiser_util
dls_param_var
p196
(dp197
g8
F0.8
sg53
Nsg10
g195
sbsba(i__main__
mp_representation
p198
(dp199
g21
S'I01B'
p200
sg48
S'SR05A-PC-S1C-07:SETI'
p201
sg50
(idls_optimiser_util
dls_param_var
p202
(dp203
g8
F0.8
sg53
Nsg10
g201
sbsba(i__main__
mp_representation
p204
(dp205
g21
S'I01C'
p206
sg48
S'SR08A-PC-S1C-01:SETI'
p207
sg50
(idls_optimiser_util
dls_param_var
p208
(dp209
g8
F0.8
sg53
Nsg10
g207
sbsba(i__main__
mp_representation
p210
(dp211
g21
S'I01D'
p212
sg48
S'SR09A-PC-S1C-07:SETI'
p213
sg50
(idls_optimiser_util
dls_param_var
p214
(dp215
g8
F0.8
sg53
Nsg10
g213
sbsba(i__main__
mp_representation
p216
(dp217
g21
S'I01E'
p218
sg48
S'SR12A-PC-S1C-01:SETI'
p219
sg50
(idls_optimiser_util
dls_param_var
p220
(dp221
g8
F0.8
sg53
Nsg10
g219
sbsba(i__main__
mp_representation
p222
(dp223
g21
S'I01F'
p224
sg48
S'SR13A-PC-S1C-07:SETI'
p225
sg50
(idls_optimiser_util
dls_param_var
p226
(dp227
g8
F0.8
sg53
Nsg10
g225
sbsba(i__main__
mp_representation
p228
(dp229
g21
S'I020'
p230
sg48
S'SR16A-PC-S1C-01:SETI'
p231
sg50
(idls_optimiser_util
dls_param_var
p232
(dp233
g8
F0.8
sg53
Nsg10
g231
sbsba(i__main__
mp_representation
p234
(dp235
g21
S'I021'
p236
sg48
S'SR17A-PC-S1C-07:SETI'
p237
sg50
(idls_optimiser_util
dls_param_var
p238
(dp239
g8
F0.8
sg53
Nsg10
g237
sbsba(i__main__
mp_representation
p240
(dp241
g21
S'I022'
p242
sg48
S'SR20A-PC-S1C-01:SETI'
p243
sg50
(idls_optimiser_util
dls_param_var
p244
(dp245
g8
F0.8
sg53
Nsg10
g243
sbsba(i__main__
mp_representation
p246
(dp247
g21
S'I023'
p248
sg48
S'SR21A-PC-S1C-07:SETI'
p249
sg50
(idls_optimiser_util
dls_param_var
p250
(dp251
g8
F0.8
sg53
Nsg10
g249
sbsba(i__main__
mp_representation
p252
(dp253
g21
S'I024'
p254
sg48
S'SR24A-PC-S1C-01:SETI'
p255
sg50
(idls_optimiser_util
dls_param_var
p256
(dp257
g8
F0.8
sg53
Nsg10
g255
sbsbasg180
F-1.0
sg21
S'I018'
p258
sba(i__main__
mp_group_representation
p259
(dp260
g39
I01
sg40
F1.0
sg41
S'S1D'
p261
sg43
(lp262
(i__main__
mp_representation
p263
(dp264
g21
S'I026'
p265
sg48
S'SR01A-PC-S1D-01:SETI'
p266
sg50
(idls_optimiser_util
dls_param_var
p267
(dp268
g8
F0.8
sg53
Nsg10
g266
sbsba(i__main__
mp_representation
p269
(dp270
g21
S'I027'
p271
sg48
S'SR04A-PC-S1D-07:SETI'
p272
sg50
(idls_optimiser_util
dls_param_var
p273
(dp274
g8
F0.8
sg53
Nsg10
g272
sbsba(i__main__
mp_representation
p275
(dp276
g21
S'I028'
p277
sg48
S'SR05A-PC-S1D-01:SETI'
p278
sg50
(idls_optimiser_util
dls_param_var
p279
(dp280
g8
F0.8
sg53
Nsg10
g278
sbsba(i__main__
mp_representation
p281
(dp282
g21
S'I029'
p283
sg48
S'SR08A-PC-S1D-07:SETI'
p284
sg50
(idls_optimiser_util
dls_param_var
p285
(dp286
g8
F0.8
sg53
Nsg10
g284
sbsba(i__main__
mp_representation
p287
(dp288
g21
S'I02A'
p289
sg48
S'SR09A-PC-S1D-01:SETI'
p290
sg50
(idls_optimiser_util
dls_param_var
p291
(dp292
g8
F0.8
sg53
Nsg10
g290
sbsba(i__main__
mp_representation
p293
(dp294
g21
S'I02B'
p295
sg48
S'SR12A-PC-S1D-07:SETI'
p296
sg50
(idls_optimiser_util
dls_param_var
p297
(dp298
g8
F0.8
sg53
Nsg10
g296
sbsba(i__main__
mp_representation
p299
(dp300
g21
S'I02C'
p301
sg48
S'SR13A-PC-S1D-01:SETI'
p302
sg50
(idls_optimiser_util
dls_param_var
p303
(dp304
g8
F0.8
sg53
Nsg10
g302
sbsba(i__main__
mp_representation
p305
(dp306
g21
S'I02D'
p307
sg48
S'SR16A-PC-S1D-07:SETI'
p308
sg50
(idls_optimiser_util
dls_param_var
p309
(dp310
g8
F0.8
sg53
Nsg10
g308
sbsba(i__main__
mp_representation
p311
(dp312
g21
S'I02E'
p313
sg48
S'SR17A-PC-S1D-01:SETI'
p314
sg50
(idls_optimiser_util
dls_param_var
p315
(dp316
g8
F0.8
sg53
Nsg10
g314
sbsba(i__main__
mp_representation
p317
(dp318
g21
S'I02F'
p319
sg48
S'SR20A-PC-S1D-07:SETI'
p320
sg50
(idls_optimiser_util
dls_param_var
p321
(dp322
g8
F0.8
sg53
Nsg10
g320
sbsba(i__main__
mp_representation
p323
(dp324
g21
S'I030'
p325
sg48
S'SR21A-PC-S1D-01:SETI'
p326
sg50
(idls_optimiser_util
dls_param_var
p327
(dp328
g8
F0.8
sg53
Nsg10
g326
sbsba(i__main__
mp_representation
p329
(dp330
g21
S'I031'
p331
sg48
S'SR24A-PC-S1D-07:SETI'
p332
sg50
(idls_optimiser_util
dls_param_var
p333
(dp334
g8
F0.8
sg53
Nsg10
g332
sbsbasg180
F-1.0
sg21
S'I025'
p335
sba(i__main__
mp_group_representation
p336
(dp337
g39
I01
sg40
F1.0
sg41
S'S2B'
p338
sg43
(lp339
(i__main__
mp_representation
p340
(dp341
g21
S'I033'
p342
sg48
S'SR03A-PC-S2B-02:SETI'
p343
sg50
(idls_optimiser_util
dls_param_var
p344
(dp345
g8
F0.8
sg53
Nsg10
g343
sbsba(i__main__
mp_representation
p346
(dp347
g21
S'I034'
p348
sg48
S'SR03A-PC-S2B-06:SETI'
p349
sg50
(idls_optimiser_util
dls_param_var
p350
(dp351
g8
F0.8
sg53
Nsg10
g349
sbsba(i__main__
mp_representation
p352
(dp353
g21
S'I035'
p354
sg48
S'SR06A-PC-S2B-02:SETI'
p355
sg50
(idls_optimiser_util
dls_param_var
p356
(dp357
g8
F0.8
sg53
Nsg10
g355
sbsba(i__main__
mp_representation
p358
(dp359
g21
S'I036'
p360
sg48
S'SR06A-PC-S2B-06:SETI'
p361
sg50
(idls_optimiser_util
dls_param_var
p362
(dp363
g8
F0.8
sg53
Nsg10
g361
sbsba(i__main__
mp_representation
p364
(dp365
g21
S'I037'
p366
sg48
S'SR07A-PC-S2B-02:SETI'
p367
sg50
(idls_optimiser_util
dls_param_var
p368
(dp369
g8
F0.8
sg53
Nsg10
g367
sbsba(i__main__
mp_representation
p370
(dp371
g21
S'I038'
p372
sg48
S'SR07A-PC-S2B-06:SETI'
p373
sg50
(idls_optimiser_util
dls_param_var
p374
(dp375
g8
F0.8
sg53
Nsg10
g373
sbsba(i__main__
mp_representation
p376
(dp377
g21
S'I039'
p378
sg48
S'SR10A-PC-S2B-02:SETI'
p379
sg50
(idls_optimiser_util
dls_param_var
p380
(dp381
g8
F0.8
sg53
Nsg10
g379
sbsba(i__main__
mp_representation
p382
(dp383
g21
S'I03A'
p384
sg48
S'SR10A-PC-S2B-06:SETI'
p385
sg50
(idls_optimiser_util
dls_param_var
p386
(dp387
g8
F0.8
sg53
Nsg10
g385
sbsba(i__main__
mp_representation
p388
(dp389
g21
S'I03B'
p390
sg48
S'SR11A-PC-S2B-02:SETI'
p391
sg50
(idls_optimiser_util
dls_param_var
p392
(dp393
g8
F0.8
sg53
Nsg10
g391
sbsba(i__main__
mp_representation
p394
(dp395
g21
S'I03C'
p396
sg48
S'SR11A-PC-S2B-06:SETI'
p397
sg50
(idls_optimiser_util
dls_param_var
p398
(dp399
g8
F0.8
sg53
Nsg10
g397
sbsba(i__main__
mp_representation
p400
(dp401
g21
S'I03D'
p402
sg48
S'SR14A-PC-S2B-02:SETI'
p403
sg50
(idls_optimiser_util
dls_param_var
p404
(dp405
g8
F0.8
sg53
Nsg10
g403
sbsba(i__main__
mp_representation
p406
(dp407
g21
S'I03E'
p408
sg48
S'SR14A-PC-S2B-06:SETI'
p409
sg50
(idls_optimiser_util
dls_param_var
p410
(dp411
g8
F0.8
sg53
Nsg10
g409
sbsba(i__main__
mp_representation
p412
(dp413
g21
S'I03F'
p414
sg48
S'SR15A-PC-S2B-02:SETI'
p415
sg50
(idls_optimiser_util
dls_param_var
p416
(dp417
g8
F0.8
sg53
Nsg10
g415
sbsba(i__main__
mp_representation
p418
(dp419
g21
S'I040'
p420
sg48
S'SR15A-PC-S2B-06:SETI'
p421
sg50
(idls_optimiser_util
dls_param_var
p422
(dp423
g8
F0.8
sg53
Nsg10
g421
sbsba(i__main__
mp_representation
p424
(dp425
g21
S'I041'
p426
sg48
S'SR18A-PC-S2B-02:SETI'
p427
sg50
(idls_optimiser_util
dls_param_var
p428
(dp429
g8
F0.8
sg53
Nsg10
g427
sbsba(i__main__
mp_representation
p430
(dp431
g21
S'I042'
p432
sg48
S'SR18A-PC-S2B-06:SETI'
p433
sg50
(idls_optimiser_util
dls_param_var
p434
(dp435
g8
F0.8
sg53
Nsg10
g433
sbsba(i__main__
mp_representation
p436
(dp437
g21
S'I043'
p438
sg48
S'SR19A-PC-S2B-02:SETI'
p439
sg50
(idls_optimiser_util
dls_param_var
p440
(dp441
g8
F0.8
sg53
Nsg10
g439
sbsba(i__main__
mp_representation
p442
(dp443
g21
S'I044'
p444
sg48
S'SR19A-PC-S2B-06:SETI'
p445
sg50
(idls_optimiser_util
dls_param_var
p446
(dp447
g8
F0.8
sg53
Nsg10
g445
sbsba(i__main__
mp_representation
p448
(dp449
g21
S'I045'
p450
sg48
S'SR22A-PC-S2B-02:SETI'
p451
sg50
(idls_optimiser_util
dls_param_var
p452
(dp453
g8
F0.8
sg53
Nsg10
g451
sbsba(i__main__
mp_representation
p454
(dp455
g21
S'I046'
p456
sg48
S'SR22A-PC-S2B-06:SETI'
p457
sg50
(idls_optimiser_util
dls_param_var
p458
(dp459
g8
F0.8
sg53
Nsg10
g457
sbsba(i__main__
mp_representation
p460
(dp461
g21
S'I047'
p462
sg48
S'SR23A-PC-S2B-02:SETI'
p463
sg50
(idls_optimiser_util
dls_param_var
p464
(dp465
g8
F0.8
sg53
Nsg10
g463
sbsba(i__main__
mp_representation
p466
(dp467
g21
S'I048'
p468
sg48
S'SR23A-PC-S2B-06:SETI'
p469
sg50
(idls_optimiser_util
dls_param_var
p470
(dp471
g8
F0.8
sg53
Nsg10
g469
sbsbasg180
F-1.0
sg21
S'I032'
p472
sba(i__main__
mp_group_representation
p473
(dp474
g39
I01
sg40
F1.0
sg41
S'S2C'
p475
sg43
(lp476
(i__main__
mp_representation
p477
(dp478
g21
S'I04A'
p479
sg48
S'SR01A-PC-S2C-06:SETI'
p480
sg50
(idls_optimiser_util
dls_param_var
p481
(dp482
g8
F0.8
sg53
Nsg10
g480
sbsba(i__main__
mp_representation
p483
(dp484
g21
S'I04B'
p485
sg48
S'SR04A-PC-S2C-02:SETI'
p486
sg50
(idls_optimiser_util
dls_param_var
p487
(dp488
g8
F0.8
sg53
Nsg10
g486
sbsba(i__main__
mp_representation
p489
(dp490
g21
S'I04C'
p491
sg48
S'SR05A-PC-S2C-06:SETI'
p492
sg50
(idls_optimiser_util
dls_param_var
p493
(dp494
g8
F0.8
sg53
Nsg10
g492
sbsba(i__main__
mp_representation
p495
(dp496
g21
S'I04D'
p497
sg48
S'SR08A-PC-S2C-02:SETI'
p498
sg50
(idls_optimiser_util
dls_param_var
p499
(dp500
g8
F0.8
sg53
Nsg10
g498
sbsba(i__main__
mp_representation
p501
(dp502
g21
S'I04E'
p503
sg48
S'SR09A-PC-S2C-06:SETI'
p504
sg50
(idls_optimiser_util
dls_param_var
p505
(dp506
g8
F0.8
sg53
Nsg10
g504
sbsba(i__main__
mp_representation
p507
(dp508
g21
S'I04F'
p509
sg48
S'SR12A-PC-S2C-02:SETI'
p510
sg50
(idls_optimiser_util
dls_param_var
p511
(dp512
g8
F0.8
sg53
Nsg10
g510
sbsba(i__main__
mp_representation
p513
(dp514
g21
S'I050'
p515
sg48
S'SR13A-PC-S2C-06:SETI'
p516
sg50
(idls_optimiser_util
dls_param_var
p517
(dp518
g8
F0.8
sg53
Nsg10
g516
sbsba(i__main__
mp_representation
p519
(dp520
g21
S'I051'
p521
sg48
S'SR16A-PC-S2C-02:SETI'
p522
sg50
(idls_optimiser_util
dls_param_var
p523
(dp524
g8
F0.8
sg53
Nsg10
g522
sbsba(i__main__
mp_representation
p525
(dp526
g21
S'I052'
p527
sg48
S'SR17A-PC-S2C-06:SETI'
p528
sg50
(idls_optimiser_util
dls_param_var
p529
(dp530
g8
F0.8
sg53
Nsg10
g528
sbsba(i__main__
mp_representation
p531
(dp532
g21
S'I053'
p533
sg48
S'SR20A-PC-S2C-02:SETI'
p534
sg50
(idls_optimiser_util
dls_param_var
p535
(dp536
g8
F0.8
sg53
Nsg10
g534
sbsba(i__main__
mp_representation
p537
(dp538
g21
S'I054'
p539
sg48
S'SR21A-PC-S2C-06:SETI'
p540
sg50
(idls_optimiser_util
dls_param_var
p541
(dp542
g8
F0.8
sg53
Nsg10
g540
sbsba(i__main__
mp_representation
p543
(dp544
g21
S'I055'
p545
sg48
S'SR24A-PC-S2C-02:SETI'
p546
sg50
(idls_optimiser_util
dls_param_var
p547
(dp548
g8
F0.8
sg53
Nsg10
g546
sbsbasg180
F-1.0
sg21
S'I049'
p549
sba(i__main__
mp_group_representation
p550
(dp551
g39
I01
sg40
F1.0
sg41
S'S2D'
p552
sg43
(lp553
(i__main__
mp_representation
p554
(dp555
g21
S'I057'
p556
sg48
S'SR01A-PC-S2D-02:SETI'
p557
sg50
(idls_optimiser_util
dls_param_var
p558
(dp559
g8
F0.8
sg53
Nsg10
g557
sbsba(i__main__
mp_representation
p560
(dp561
g21
S'I058'
p562
sg48
S'SR04A-PC-S2D-06:SETI'
p563
sg50
(idls_optimiser_util
dls_param_var
p564
(dp565
g8
F0.8
sg53
Nsg10
g563
sbsba(i__main__
mp_representation
p566
(dp567
g21
S'I059'
p568
sg48
S'SR05A-PC-S2D-02:SETI'
p569
sg50
(idls_optimiser_util
dls_param_var
p570
(dp571
g8
F0.8
sg53
Nsg10
g569
sbsba(i__main__
mp_representation
p572
(dp573
g21
S'I05A'
p574
sg48
S'SR08A-PC-S2D-06:SETI'
p575
sg50
(idls_optimiser_util
dls_param_var
p576
(dp577
g8
F0.8
sg53
Nsg10
g575
sbsba(i__main__
mp_representation
p578
(dp579
g21
S'I05B'
p580
sg48
S'SR09A-PC-S2D-02:SETI'
p581
sg50
(idls_optimiser_util
dls_param_var
p582
(dp583
g8
F0.8
sg53
Nsg10
g581
sbsba(i__main__
mp_representation
p584
(dp585
g21
S'I05C'
p586
sg48
S'SR12A-PC-S2D-06:SETI'
p587
sg50
(idls_optimiser_util
dls_param_var
p588
(dp589
g8
F0.8
sg53
Nsg10
g587
sbsba(i__main__
mp_representation
p590
(dp591
g21
S'I05D'
p592
sg48
S'SR13A-PC-S2D-02:SETI'
p593
sg50
(idls_optimiser_util
dls_param_var
p594
(dp595
g8
F0.8
sg53
Nsg10
g593
sbsba(i__main__
mp_representation
p596
(dp597
g21
S'I05E'
p598
sg48
S'SR16A-PC-S2D-06:SETI'
p599
sg50
(idls_optimiser_util
dls_param_var
p600
(dp601
g8
F0.8
sg53
Nsg10
g599
sbsba(i__main__
mp_representation
p602
(dp603
g21
S'I05F'
p604
sg48
S'SR17A-PC-S2D-02:SETI'
p605
sg50
(idls_optimiser_util
dls_param_var
p606
(dp607
g8
F0.8
sg53
Nsg10
g605
sbsba(i__main__
mp_representation
p608
(dp609
g21
S'I060'
p610
sg48
S'SR20A-PC-S2D-06:SETI'
p611
sg50
(idls_optimiser_util
dls_param_var
p612
(dp613
g8
F0.8
sg53
Nsg10
g611
sbsba(i__main__
mp_representation
p614
(dp615
g21
S'I061'
p616
sg48
S'SR21A-PC-S2D-02:SETI'
p617
sg50
(idls_optimiser_util
dls_param_var
p618
(dp619
g8
F0.8
sg53
Nsg10
g617
sbsba(i__main__
mp_representation
p620
(dp621
g21
S'I062'
p622
sg48
S'SR24A-PC-S2D-06:SETI'
p623
sg50
(idls_optimiser_util
dls_param_var
p624
(dp625
g8
F0.8
sg53
Nsg10
g623
sbsbasg180
F-1.0
sg21
S'I056'
p626
sbas.