(dp0
S'results'
p1
(lp2
(i__main__
mr_representation
p3
(dp4
S'mr_obj'
p5
(idls_optimiser_util
dls_measurement_var
p6
(dp7
S'delay'
p8
F0.3
sS'min_counts'
p9
F10.0
sS'pv'
p10
S'CS-DI-XFER-01:BS-MS'
p11
sbsS'mr_label'
p12
S'CS-DI-XFER-01:BS-MS'
p13
sS'max_min_text'
p14
S'Maximise'
p15
sS'max_min_sign'
p16
S'-'
p17
sS'mr_to_ar_sign'
p18
g17
sS'list_iid'
p19
S'I001'
p20
sS'ar_label'
p21
S'CS-DI-XFER-01:BS-MS'
p22
sba(i__main__
mr_representation
p23
(dp24
g5
(idls_optimiser_util
dls_measurement_var
p25
(dp26
g8
F0.3
sg9
F10.0
sg10
S'SR23C-DI-EBPM-08:FR:PPX'
p27
sbsg12
S'SR23C-DI-EBPM-08:FR:PPX'
p28
sg14
S'Minimise'
p29
sg16
S'+'
p30
sg18
g30
sg19
S'I002'
p31
sg21
S'SR23C-DI-EBPM-08:FR:PPX'
p32
sbasS'parameters'
p33
(lp34
(i__main__
mp_group_representation
p35
(dp36
S'relative_setting'
p37
I01
sS'ap_max'
p38
F20.0
sS'ap_label'
p39
S'SR01S-PC-SIK-01:SETI'
p40
sS'mp_representations'
p41
(lp42
(i__main__
mp_representation
p43
(dp44
g19
S'I001'
p45
sS'mp_label'
p46
g40
sS'mp_obj'
p47
(idls_optimiser_util
dls_param_var
p48
(dp49
g8
F0.8
sS'initial_setting'
p50
Nsg10
g40
sbsbasS'ap_min'
p51
F-20.0
sg19
g45
sba(i__main__
mp_group_representation
p52
(dp53
g37
I01
sg38
F20.0
sg39
S'SR01S-PC-SIK-02:SETI'
p54
sg41
(lp55
(i__main__
mp_representation
p56
(dp57
g19
S'I002'
p58
sg46
g54
sg47
(idls_optimiser_util
dls_param_var
p59
(dp60
g8
F0.8
sg50
Nsg10
g54
sbsbasg51
F-20.0
sg19
g58
sba(i__main__
mp_group_representation
p61
(dp62
g37
I01
sg38
F20.0
sg39
S'SR01S-PC-SIK-03:SETI'
p63
sg41
(lp64
(i__main__
mp_representation
p65
(dp66
g19
S'I003'
p67
sg46
g63
sg47
(idls_optimiser_util
dls_param_var
p68
(dp69
g8
F0.8
sg50
Nsg10
g63
sbsbasg51
F-20.0
sg19
g67
sba(i__main__
mp_group_representation
p70
(dp71
g37
I01
sg38
F20.0
sg39
S'SR01S-PC-SIK-04:SETI'
p72
sg41
(lp73
(i__main__
mp_representation
p74
(dp75
g19
S'I004'
p76
sg46
g72
sg47
(idls_optimiser_util
dls_param_var
p77
(dp78
g8
F0.8
sg50
Nsg10
g72
sbsbasg51
F-20.0
sg19
g76
sba(i__main__
mp_group_representation
p79
(dp80
g37
I01
sg38
F0.024
sg39
S'SR01S-PC-EVR-01:TI:SIK-01'
p81
sg41
(lp82
(i__main__
mp_representation
p83
(dp84
g19
S'I005'
p85
sg46
g81
sg47
(idls_optimiser_util
dls_param_var
p86
(dp87
g8
F0.8
sg50
Nsg10
g81
sbsbasg51
F-0.024
sg19
g85
sba(i__main__
mp_group_representation
p88
(dp89
g37
I01
sg38
F0.024
sg39
S'SR01S-PC-EVR-01:TI:SIK-02'
p90
sg41
(lp91
(i__main__
mp_representation
p92
(dp93
g19
S'I006'
p94
sg46
g90
sg47
(idls_optimiser_util
dls_param_var
p95
(dp96
g8
F0.8
sg50
Nsg10
g90
sbsbasg51
F-0.024
sg19
g94
sba(i__main__
mp_group_representation
p97
(dp98
g37
I01
sg38
F0.024
sg39
S'SR01S-PC-EVR-01:TI:SIK-03'
p99
sg41
(lp100
(i__main__
mp_representation
p101
(dp102
g19
S'I007'
p103
sg46
g99
sg47
(idls_optimiser_util
dls_param_var
p104
(dp105
g8
F0.8
sg50
Nsg10
g99
sbsbasg51
F-0.024
sg19
g103
sba(i__main__
mp_group_representation
p106
(dp107
g37
I01
sg38
F0.024
sg39
S'SR01S-PC-EVR-01:TI:SIK-04'
p108
sg41
(lp109
(i__main__
mp_representation
p110
(dp111
g19
S'I008'
p112
sg46
g108
sg47
(idls_optimiser_util
dls_param_var
p113
(dp114
g8
F0.8
sg50
Nsg10
g108
sbsbasg51
F-0.024
sg19
g112
sba(i__main__
mp_group_representation
p115
(dp116
g37
I01
sg38
F1.0
sg39
S'BS-PC-HSTR-06:SETI'
p117
sg41
(lp118
(i__main__
mp_representation
p119
(dp120
g19
S'I009'
p121
sg46
g117
sg47
(idls_optimiser_util
dls_param_var
p122
(dp123
g8
F0.8
sg50
Nsg10
g117
sbsbasg51
F-1.0
sg19
g121
sba(i__main__
mp_group_representation
p124
(dp125
g37
I01
sg38
F1.0
sg39
S'BS-PC-HSTR-07:SETI'
p126
sg41
(lp127
(i__main__
mp_representation
p128
(dp129
g19
S'I00A'
p130
sg46
g126
sg47
(idls_optimiser_util
dls_param_var
p131
(dp132
g8
F0.8
sg50
Nsg10
g126
sbsbasg51
F-1.0
sg19
g130
sbas.